; Function Attrs: mustprogress nounwind uwtable
define hidden void @_ZN15ShenandoahPacer20flush_stats_to_cycleEv(ptr nocapture noundef nonnull readnone align 8 dereferenceable(480) %0) local_unnamed_addr #0 align 2 {
  %2 = alloca %class.JavaThreadIteratorWithHandle, align 8
  %3 = getelementptr inbounds i8, ptr %2, i64 8
  %4 = tail call align 8 ptr @llvm.threadlocal.address.p0(ptr align 8 @_ZN6Thread12_thr_currentE)
  %5 = load ptr, ptr %4, align 8
  call void @_ZN17ThreadsListHandleC1EP6Thread(ptr noundef nonnull align 8 dereferenceable(56) %3, ptr noundef %5) #8
  %6 = getelementptr inbounds i8, ptr %2, i64 64
  store i32 0, ptr %6, align 8
  %7 = getelementptr inbounds i8, ptr %2, i64 24
  %8 = load ptr, ptr %7, align 8
  %9 = getelementptr inbounds i8, ptr %8, i64 4
  %10 = load i32, ptr %9, align 4
  %.not.i7.not = icmp eq i32 %10, 0
  br i1 %.not.i7.not, label %_ZN28JavaThreadIteratorWithHandle4nextEv.exit.thread, label %_ZN28JavaThreadIteratorWithHandle4nextEv.exit.lr.ph

_ZN28JavaThreadIteratorWithHandle4nextEv.exit.lr.ph: ; preds = %1
  %11 = getelementptr inbounds i8, ptr %8, i64 16
  br label %_ZN28JavaThreadIteratorWithHandle4nextEv.exit

_ZN28JavaThreadIteratorWithHandle4nextEv.exit:    ; preds = %_ZN28JavaThreadIteratorWithHandle4nextEv.exit.lr.ph, %21
  %12 = phi i32 [ 0, %_ZN28JavaThreadIteratorWithHandle4nextEv.exit.lr.ph ], [ %13, %21 ]
  %.08 = phi double [ 0.000000e+00, %_ZN28JavaThreadIteratorWithHandle4nextEv.exit.lr.ph ], [ %24, %21 ]
  %13 = add nuw i32 %12, 1
  store i32 %13, ptr %6, align 8
  %14 = load ptr, ptr %11, align 8
  %15 = zext i32 %12 to i64
  %16 = getelementptr inbounds ptr, ptr %14, i64 %15
  %17 = load ptr, ptr %16, align 8
  %.not = icmp eq ptr %17, null
  br i1 %.not, label %_ZN28JavaThreadIteratorWithHandle4nextEv.exit.thread, label %21

_ZN28JavaThreadIteratorWithHandle4nextEv.exit.thread: ; preds = %_ZN28JavaThreadIteratorWithHandle4nextEv.exit, %21, %1
  %.0.lcssa = phi double [ 0.000000e+00, %1 ], [ %24, %21 ], [ %.08, %_ZN28JavaThreadIteratorWithHandle4nextEv.exit ]
  call void @_ZN17ThreadsListHandleD1Ev(ptr noundef nonnull align 8 dereferenceable(56) %3) #8
  %18 = load ptr, ptr @_ZN8Universe14_collectedHeapE, align 8
  %19 = getelementptr inbounds i8, ptr %18, i64 1680
  %20 = load ptr, ptr %19, align 8
  call void @_ZN22ShenandoahPhaseTimings17record_phase_timeENS_5PhaseEd(ptr noundef nonnull align 8 dereferenceable(30352) %20, i32 noundef 304, double noundef %.0.lcssa) #8
  ret void

21:                                               ; preds = %_ZN28JavaThreadIteratorWithHandle4nextEv.exit
  %22 = getelementptr inbounds i8, ptr %17, i64 88
  %23 = load double, ptr %22, align 8
  %24 = fadd double %.08, %23
  %25 = load i32, ptr %9, align 4
  %.not.i = icmp ult i32 %13, %25
  br i1 %.not.i, label %_ZN28JavaThreadIteratorWithHandle4nextEv.exit, label %_ZN28JavaThreadIteratorWithHandle4nextEv.exit.thread, !llvm.loop !14
}